target datalayout = "e-m:e-p270:32:32-p271:32:32-p272:64:64-i64:64-i128:128-f80:128-n8:16:32:64-S128"
target triple = "x86_64-pc-linux-gnu"

%struct.FunctionCallInfoBaseData = type { ptr, ptr, ptr, i32, i8, i16, [0 x %struct.NullableDatum] }
%struct.NullableDatum = type { i64, i8 }
%struct.nameData = type { [64 x i8] }
%struct.FormData_pg_class = type { i32, %struct.nameData, i32, i32, i32, i32, i32, i32, i32, i32, float, i32, i32, i8, i8, i8, i8, i16, i16, i8, i8, i8, i8, i8, i8, i8, i8, i32, i32, i32 }
%struct.HeapTupleData = type { i32, %struct.ItemPointerData, i32, ptr }
%struct.ItemPointerData = type { %struct.BlockIdData, i16 }
%struct.BlockIdData = type { i16, i16 }
%struct.HeapTupleHeaderData = type { %union.anon, %struct.ItemPointerData, i16, i16, i8, [0 x i8] }
%union.anon = type { %struct.HeapTupleFields }
%struct.HeapTupleFields = type { i32, i32, %union.anon.1 }
%union.anon.1 = type { i32 }

; Function Attrs: inlinehint nounwind uwtable
define internal ptr @GETSTRUCT(ptr noundef %0) #2 {
  %2 = alloca ptr, align 8
  store ptr %0, ptr %2, align 8
  %3 = load ptr, ptr %2, align 8
  %4 = getelementptr inbounds nuw %struct.HeapTupleData, ptr %3, i32 0, i32 3
  %5 = load ptr, ptr %4, align 8
  %6 = load ptr, ptr %2, align 8
  %7 = getelementptr inbounds nuw %struct.HeapTupleData, ptr %6, i32 0, i32 3
  %8 = load ptr, ptr %7, align 8
  %9 = getelementptr inbounds nuw %struct.HeapTupleHeaderData, ptr %8, i32 0, i32 4
  %10 = load i8, ptr %9, align 2
  %11 = zext i8 %10 to i32
  %12 = sext i32 %11 to i64
  %13 = getelementptr inbounds i8, ptr %5, i64 %12
  ret ptr %13
}

; Function Attrs: inlinehint nounwind uwtable
define internal i64 @ObjectIdGetDatum(i32 noundef %0) #2 {
  %2 = alloca i32, align 4
  store i32 %0, ptr %2, align 4
  %3 = load i32, ptr %2, align 4
  %4 = zext i32 %3 to i64
  ret i64 %4
}

; Function Attrs: inlinehint nounwind uwtable
define internal i32 @DatumGetObjectId(i64 noundef %0) #2 {
  %2 = alloca i64, align 8
  store i64 %0, ptr %2, align 8
  %3 = load i64, ptr %2, align 8
  %4 = trunc i64 %3 to i32
  ret i32 %4
}

; Function Attrs: nounwind uwtable
define dso_local i64 @pg_relation_filenode(ptr noundef %0) #0 {
  %2 = alloca i64, align 8
  %3 = alloca ptr, align 8
  %4 = alloca i32, align 4
  %5 = alloca i32, align 4
  %6 = alloca ptr, align 8
  %7 = alloca ptr, align 8
  %8 = alloca i32, align 4
  store ptr %0, ptr %3, align 8
  call void @llvm.lifetime.start.p0(i64 4, ptr %4) #10
  %9 = load ptr, ptr %3, align 8
  %10 = getelementptr inbounds nuw %struct.FunctionCallInfoBaseData, ptr %9, i32 0, i32 6
  %11 = getelementptr inbounds [0 x %struct.NullableDatum], ptr %10, i64 0, i64 0
  %12 = getelementptr inbounds nuw %struct.NullableDatum, ptr %11, i32 0, i32 0
  %13 = load i64, ptr %12, align 8
  %14 = call i32 @DatumGetObjectId(i64 noundef %13)
  store i32 %14, ptr %4, align 4
  call void @llvm.lifetime.start.p0(i64 4, ptr %5) #10
  call void @llvm.lifetime.start.p0(i64 8, ptr %6) #10
  call void @llvm.lifetime.start.p0(i64 8, ptr %7) #10
  %15 = load i32, ptr %4, align 4
  %16 = call i64 @ObjectIdGetDatum(i32 noundef %15)
  %17 = call ptr @SearchSysCache1(i32 noundef 57, i64 noundef %16)
  store ptr %17, ptr %6, align 8
  %18 = load ptr, ptr %6, align 8
  %19 = icmp ne ptr %18, null
  br i1 %19, label %26, label %20

20:                                               ; preds = %1
  br label %21

21:                                               ; preds = %20
  %22 = load ptr, ptr %3, align 8
  %23 = getelementptr inbounds nuw %struct.FunctionCallInfoBaseData, ptr %22, i32 0, i32 4
  store i8 1, ptr %23, align 4
  store i64 0, ptr %2, align 8
  store i32 1, ptr %8, align 4
  br label %89

24:                                               ; No predecessors!
  br label %25

25:                                               ; preds = %24
  br label %26

26:                                               ; preds = %25, %1
  %27 = load ptr, ptr %6, align 8
  %28 = call ptr @GETSTRUCT(ptr noundef %27)
  store ptr %28, ptr %7, align 8
  %29 = load ptr, ptr %7, align 8
  %30 = getelementptr inbounds nuw %struct.FormData_pg_class, ptr %29, i32 0, i32 16
  %31 = load i8, ptr %30, align 1
  %32 = sext i8 %31 to i32
  %33 = icmp eq i32 %32, 114
  br i1 %33, label %58, label %34

34:                                               ; preds = %26
  %35 = load ptr, ptr %7, align 8
  %36 = getelementptr inbounds nuw %struct.FormData_pg_class, ptr %35, i32 0, i32 16
  %37 = load i8, ptr %36, align 1
  %38 = sext i8 %37 to i32
  %39 = icmp eq i32 %38, 105
  br i1 %39, label %58, label %40

40:                                               ; preds = %34
  %41 = load ptr, ptr %7, align 8
  %42 = getelementptr inbounds nuw %struct.FormData_pg_class, ptr %41, i32 0, i32 16
  %43 = load i8, ptr %42, align 1
  %44 = sext i8 %43 to i32
  %45 = icmp eq i32 %44, 83
  br i1 %45, label %58, label %46

46:                                               ; preds = %40
  %47 = load ptr, ptr %7, align 8
  %48 = getelementptr inbounds nuw %struct.FormData_pg_class, ptr %47, i32 0, i32 16
  %49 = load i8, ptr %48, align 1
  %50 = sext i8 %49 to i32
  %51 = icmp eq i32 %50, 116
  br i1 %51, label %58, label %52

52:                                               ; preds = %46
  %53 = load ptr, ptr %7, align 8
  %54 = getelementptr inbounds nuw %struct.FormData_pg_class, ptr %53, i32 0, i32 16
  %55 = load i8, ptr %54, align 1
  %56 = sext i8 %55 to i32
  %57 = icmp eq i32 %56, 109
  br i1 %57, label %58, label %75

58:                                               ; preds = %52, %46, %40, %34, %26
  %59 = load ptr, ptr %7, align 8
  %60 = getelementptr inbounds nuw %struct.FormData_pg_class, ptr %59, i32 0, i32 7
  %61 = load i32, ptr %60, align 4
  %62 = icmp ne i32 %61, 0
  br i1 %62, label %63, label %67

63:                                               ; preds = %58
  %64 = load ptr, ptr %7, align 8
  %65 = getelementptr inbounds nuw %struct.FormData_pg_class, ptr %64, i32 0, i32 7
  %66 = load i32, ptr %65, align 4
  store i32 %66, ptr %5, align 4
  br label %74

67:                                               ; preds = %58
  %68 = load i32, ptr %4, align 4
  %69 = load ptr, ptr %7, align 8
  %70 = getelementptr inbounds nuw %struct.FormData_pg_class, ptr %69, i32 0, i32 14
  %71 = load i8, ptr %70, align 1, !range !8, !noundef !9
  %72 = trunc i8 %71 to i1
  %73 = call i32 @RelationMapOidToFilenumber(i32 noundef %68, i1 noundef zeroext %72)
  store i32 %73, ptr %5, align 4
  br label %74

74:                                               ; preds = %67, %63
  br label %76

75:                                               ; preds = %52
  store i32 0, ptr %5, align 4
  br label %76

76:                                               ; preds = %75, %74
  %77 = load ptr, ptr %6, align 8
  call void @ReleaseSysCache(ptr noundef %77)
  %78 = load i32, ptr %5, align 4
  %79 = icmp ne i32 %78, 0
  br i1 %79, label %86, label %80

80:                                               ; preds = %76
  br label %81

81:                                               ; preds = %80
  %82 = load ptr, ptr %3, align 8
  %83 = getelementptr inbounds nuw %struct.FunctionCallInfoBaseData, ptr %82, i32 0, i32 4
  store i8 1, ptr %83, align 4
  store i64 0, ptr %2, align 8
  store i32 1, ptr %8, align 4
  br label %89

84:                                               ; No predecessors!
  br label %85

85:                                               ; preds = %84
  br label %86

86:                                               ; preds = %85, %76
  %87 = load i32, ptr %5, align 4
  %88 = call i64 @ObjectIdGetDatum(i32 noundef %87)
  store i64 %88, ptr %2, align 8
  store i32 1, ptr %8, align 4
  br label %89

89:                                               ; preds = %86, %81, %21
  call void @llvm.lifetime.end.p0(i64 8, ptr %7) #10
  call void @llvm.lifetime.end.p0(i64 8, ptr %6) #10
  call void @llvm.lifetime.end.p0(i64 4, ptr %5) #10
  call void @llvm.lifetime.end.p0(i64 4, ptr %4) #10
  %90 = load i64, ptr %2, align 8
  ret i64 %90
}