; Function Attrs: nounwind uwtable
define dso_local range(i64 0, 4294967296) i64 @pg_relation_filenode(ptr noundef captures(none) %0) local_unnamed_addr #0 {
  %2 = getelementptr inbounds nuw i8, ptr %0, i64 32
  %3 = load i64, ptr %2, align 8
  %4 = trunc i64 %3 to i32
  %5 = and i64 %3, 4294967295
  %6 = tail call ptr @SearchSysCache1(i32 noundef 57, i64 noundef %5) #9
  %.not = icmp eq ptr %6, null
  br i1 %.not, label %7, label %9

7:                                                ; preds = %1
  %8 = getelementptr inbounds nuw i8, ptr %0, i64 28
  store i8 1, ptr %8, align 4
  br label %29

9:                                                ; preds = %1
  %10 = getelementptr i8, ptr %6, i64 16
  %.val = load ptr, ptr %10, align 8
  %11 = getelementptr inbounds nuw i8, ptr %.val, i64 22
  %12 = load i8, ptr %11, align 2
  %13 = zext i8 %12 to i64
  %14 = getelementptr inbounds nuw i8, ptr %.val, i64 %13
  %15 = getelementptr inbounds nuw i8, ptr %14, i64 115
  %16 = load i8, ptr %15, align 1
  switch i8 %16, label %.thread [
    i8 114, label %17
    i8 105, label %17
    i8 83, label %17
    i8 116, label %17
    i8 109, label %17
  ]

.thread:                                          ; preds = %9
  tail call void @ReleaseSysCache(ptr noundef nonnull %6) #9
  br label %25

17:                                               ; preds = %9, %9, %9, %9, %9
  %18 = getelementptr inbounds nuw i8, ptr %14, i64 88
  %19 = load i32, ptr %18, align 4
  %.not22 = icmp eq i32 %19, 0
  br i1 %.not22, label %20, label %.thread26

.thread26:                                        ; preds = %17
  tail call void @ReleaseSysCache(ptr noundef nonnull %6) #9
  br label %27

20:                                               ; preds = %17
  %21 = getelementptr inbounds nuw i8, ptr %14, i64 113
  %22 = load i8, ptr %21, align 1, !range !11, !noundef !12
  %23 = trunc nuw i8 %22 to i1
  %24 = tail call i32 @RelationMapOidToFilenumber(i32 noundef %4, i1 noundef zeroext %23) #9
  tail call void @ReleaseSysCache(ptr noundef nonnull %6) #9
  %.not23 = icmp eq i32 %24, 0
  br i1 %.not23, label %25, label %27

25:                                               ; preds = %.thread, %20
  %26 = getelementptr inbounds nuw i8, ptr %0, i64 28
  store i8 1, ptr %26, align 4
  br label %29

27:                                               ; preds = %.thread26, %20
  %.01829 = phi i32 [ %19, %.thread26 ], [ %24, %20 ]
  %28 = zext i32 %.01829 to i64
  br label %29

29:                                               ; preds = %27, %25, %7
  %.0 = phi i64 [ %28, %27 ], [ 0, %25 ], [ 0, %7 ]
  ret i64 %.0
}